target datalayout = "e-m:e-p270:32:32-p271:32:32-p272:64:64-i64:64-i128:128-f80:128-n8:16:32:64-S128"
target triple = "x86_64-unknown-linux-gnu"

%"class.icu_75::UnicodeString" = type { %"class.icu_75::Replaceable", %"union.icu_75::UnicodeString::StackBufferOrFields" }
%"class.icu_75::Replaceable" = type { %"class.icu_75::UObject" }
%"class.icu_75::UObject" = type { ptr }
%"union.icu_75::UnicodeString::StackBufferOrFields" = type { %struct.anon.0, [32 x i8] }
%struct.anon.0 = type { i16, i32, i32, ptr }
%"class.(anonymous namespace)::PluralTableSink" = type { %"class.icu_75::ResourceSink", ptr }
%"class.icu_75::ResourceSink" = type { %"class.icu_75::UObject" }
%"class.icu_75::ConstChar16Ptr" = type { ptr }

@.str.1 = private unnamed_addr constant [5 x i8] c"case\00", align 1
@.str.41 = private unnamed_addr constant [4 x i8] c"nam\00", align 1
@.str.42 = private unnamed_addr constant [6 x i8] c"ender\00", align 1
@.str.43 = private unnamed_addr constant [3 x i8] c"er\00", align 1

; Function Attrs: mustprogress nounwind uwtable
define linkonce_odr void @_ZN6icu_7514ConstChar16PtrD2Ev(ptr noundef nonnull align 8 dereferenceable(8) %this) unnamed_addr #0 comdat align 2 {
entry:
  %this.addr = alloca ptr, align 8
  store ptr %this, ptr %this.addr, align 8
  %this1 = load ptr, ptr %this.addr, align 8
  %p_ = getelementptr inbounds %"class.icu_75::ConstChar16Ptr", ptr %this1, i32 0, i32 0
  %0 = load ptr, ptr %p_, align 8
  call void asm sideeffect "", "rm,~{memory},~{dirflag},~{fpsr},~{flags}"(ptr %0) #14, !srcloc !14
  ret void
}

; Function Attrs: mustprogress nounwind uwtable
define linkonce_odr void @_ZN6icu_7514ConstChar16PtrC2EPKDs(ptr noundef nonnull align 8 dereferenceable(8) %this, ptr noundef %p) unnamed_addr #0 comdat align 2 {
entry:
  %this.addr = alloca ptr, align 8
  %p.addr = alloca ptr, align 8
  store ptr %this, ptr %this.addr, align 8
  store ptr %p, ptr %p.addr, align 8
  %this1 = load ptr, ptr %this.addr, align 8
  %p_ = getelementptr inbounds %"class.icu_75::ConstChar16Ptr", ptr %this1, i32 0, i32 0
  %0 = load ptr, ptr %p.addr, align 8
  store ptr %0, ptr %p_, align 8
  ret void
}

; Function Attrs: mustprogress uwtable
define linkonce_odr noundef i32 @_ZN6icu_7514StandardPlural10fromStringEPKcR10UErrorCode(ptr noundef %keyword, ptr noundef nonnull align 4 dereferenceable(4) %errorCode) #1 comdat align 2 {
entry:
  %keyword.addr = alloca ptr, align 8
  %errorCode.addr = alloca ptr, align 8
  store ptr %keyword, ptr %keyword.addr, align 8
  store ptr %errorCode, ptr %errorCode.addr, align 8
  %0 = load ptr, ptr %keyword.addr, align 8
  %1 = load ptr, ptr %errorCode.addr, align 8
  %call = call noundef i32 @_ZN6icu_7514StandardPlural15indexFromStringEPKcR10UErrorCode(ptr noundef %0, ptr noundef nonnull align 4 dereferenceable(4) %1)
  ret i32 %call
}

; Function Attrs: mustprogress uwtable
define linkonce_odr void @_ZNK6icu_7513ResourceValue16getUnicodeStringER10UErrorCode(ptr noalias sret(%"class.icu_75::UnicodeString") align 8 %agg.result, ptr noundef nonnull align 8 dereferenceable(8) %this, ptr noundef nonnull align 4 dereferenceable(4) %errorCode) #1 comdat align 2 personality ptr @__gxx_personality_v0 {
entry:
  %result.ptr = alloca ptr, align 8
  %this.addr = alloca ptr, align 8
  %errorCode.addr = alloca ptr, align 8
  %len = alloca i32, align 4
  %r = alloca ptr, align 8
  %agg.tmp = alloca %"class.icu_75::ConstChar16Ptr", align 8
  %exn.slot = alloca ptr, align 8
  %ehselector.slot = alloca i32, align 4
  store ptr %agg.result, ptr %result.ptr, align 8
  store ptr %this, ptr %this.addr, align 8
  store ptr %errorCode, ptr %errorCode.addr, align 8
  %this1 = load ptr, ptr %this.addr, align 8
  store i32 0, ptr %len, align 4
  %0 = load ptr, ptr %errorCode.addr, align 8
  %vtable = load ptr, ptr %this1, align 8
  %vfn = getelementptr inbounds ptr, ptr %vtable, i64 4
  %1 = load ptr, ptr %vfn, align 8
  %call = call noundef ptr %1(ptr noundef nonnull align 8 dereferenceable(8) %this1, ptr noundef nonnull align 4 dereferenceable(4) %len, ptr noundef nonnull align 4 dereferenceable(4) %0)
  store ptr %call, ptr %r, align 8
  %2 = load ptr, ptr %r, align 8
  call void @_ZN6icu_7514ConstChar16PtrC2EPKDs(ptr noundef nonnull align 8 dereferenceable(8) %agg.tmp, ptr noundef %2)
  %3 = load i32, ptr %len, align 4
  invoke void @_ZN6icu_7513UnicodeStringC1EaNS_14ConstChar16PtrEi(ptr noundef nonnull align 8 dereferenceable(64) %agg.result, i8 noundef signext 1, ptr noundef %agg.tmp, i32 noundef %3)
          to label %invoke.cont unwind label %lpad

invoke.cont:                                      ; preds = %entry
  call void @_ZN6icu_7514ConstChar16PtrD2Ev(ptr noundef nonnull align 8 dereferenceable(8) %agg.tmp) #14
  ret void

lpad:                                             ; preds = %entry
  %4 = landingpad { ptr, i32 }
          cleanup
  %5 = extractvalue { ptr, i32 } %4, 0
  store ptr %5, ptr %exn.slot, align 8
  %6 = extractvalue { ptr, i32 } %4, 1
  store i32 %6, ptr %ehselector.slot, align 4
  call void @_ZN6icu_7514ConstChar16PtrD2Ev(ptr noundef nonnull align 8 dereferenceable(8) %agg.tmp) #14
  br label %eh.resume

eh.resume:                                        ; preds = %lpad
  %exn = load ptr, ptr %exn.slot, align 8
  %sel = load i32, ptr %ehselector.slot, align 4
  %lpad.val = insertvalue { ptr, i32 } poison, ptr %exn, 0
  %lpad.val2 = insertvalue { ptr, i32 } %lpad.val, i32 %sel, 1
  resume { ptr, i32 } %lpad.val2
}

; Function Attrs: mustprogress nounwind uwtable
define linkonce_odr noundef signext i8 @_ZNK6icu_7513UnicodeString7isBogusEv(ptr noundef nonnull align 8 dereferenceable(64) %this) #0 comdat align 2 {
entry:
  %this.addr = alloca ptr, align 8
  store ptr %this, ptr %this.addr, align 8
  %this1 = load ptr, ptr %this.addr, align 8
  %fUnion = getelementptr inbounds %"class.icu_75::UnicodeString", ptr %this1, i32 0, i32 1
  %fLengthAndFlags = getelementptr inbounds %struct.anon.0, ptr %fUnion, i32 0, i32 0
  %0 = load i16, ptr %fLengthAndFlags, align 8
  %conv = sext i16 %0 to i32
  %and = and i32 %conv, 1
  %conv2 = trunc i32 %and to i8
  ret i8 %conv2
}

; Function Attrs: mustprogress nounwind uwtable
define internal noundef signext i8 @_ZL9U_FAILURE10UErrorCode(i32 noundef %code) #0 {
entry:
  %code.addr = alloca i32, align 4
  store i32 %code, ptr %code.addr, align 4
  %0 = load i32, ptr %code.addr, align 4
  %cmp = icmp sgt i32 %0, 0
  %conv = zext i1 %cmp to i8
  ret i8 %conv
}

; Function Attrs: mustprogress uwtable
define internal noundef i32 @_ZN12_GLOBAL__N_18getIndexEPKcR10UErrorCode(ptr noundef %pluralKeyword, ptr noundef nonnull align 4 dereferenceable(4) %status) #1 {
entry:
  %retval = alloca i32, align 4
  %pluralKeyword.addr = alloca ptr, align 8
  %status.addr = alloca ptr, align 8
  %plural = alloca i32, align 4
  store ptr %pluralKeyword, ptr %pluralKeyword.addr, align 8
  store ptr %status, ptr %status.addr, align 8
  %0 = load ptr, ptr %pluralKeyword.addr, align 8
  %1 = load i8, ptr %0, align 1
  %conv = sext i8 %1 to i32
  switch i32 %conv, label %sw.default [
    i32 100, label %sw.bb
    i32 103, label %sw.bb1
    i32 112, label %sw.bb7
  ]

sw.bb:                                            ; preds = %entry
  %2 = load ptr, ptr %pluralKeyword.addr, align 8
  %add.ptr = getelementptr inbounds i8, ptr %2, i64 1
  %call = call i32 @strcmp(ptr noundef %add.ptr, ptr noundef @.str.41) #17
  %cmp = icmp eq i32 %call, 0
  br i1 %cmp, label %if.then, label %if.end

if.then:                                          ; preds = %sw.bb
  store i32 8, ptr %retval, align 4
  br label %return

if.end:                                           ; preds = %sw.bb
  br label %sw.epilog

sw.bb1:                                           ; preds = %entry
  %3 = load ptr, ptr %pluralKeyword.addr, align 8
  %add.ptr2 = getelementptr inbounds i8, ptr %3, i64 1
  %call3 = call i32 @strcmp(ptr noundef %add.ptr2, ptr noundef @.str.42) #17
  %cmp4 = icmp eq i32 %call3, 0
  br i1 %cmp4, label %if.then5, label %if.end6

if.then5:                                         ; preds = %sw.bb1
  store i32 10, ptr %retval, align 4
  br label %return

if.end6:                                          ; preds = %sw.bb1
  br label %sw.epilog

sw.bb7:                                           ; preds = %entry
  %4 = load ptr, ptr %pluralKeyword.addr, align 8
  %add.ptr8 = getelementptr inbounds i8, ptr %4, i64 1
  %call9 = call i32 @strcmp(ptr noundef %add.ptr8, ptr noundef @.str.43) #17
  %cmp10 = icmp eq i32 %call9, 0
  br i1 %cmp10, label %if.then11, label %if.end12

if.then11:                                        ; preds = %sw.bb7
  store i32 9, ptr %retval, align 4
  br label %return

if.end12:                                         ; preds = %sw.bb7
  br label %sw.epilog

sw.default:                                       ; preds = %entry
  br label %sw.epilog

sw.epilog:                                        ; preds = %sw.default, %if.end12, %if.end6, %if.end
  %5 = load ptr, ptr %pluralKeyword.addr, align 8
  %6 = load ptr, ptr %status.addr, align 8
  %call13 = call noundef i32 @_ZN6icu_7514StandardPlural10fromStringEPKcR10UErrorCode(ptr noundef %5, ptr noundef nonnull align 4 dereferenceable(4) %6)
  store i32 %call13, ptr %plural, align 4
  %7 = load i32, ptr %plural, align 4
  store i32 %7, ptr %retval, align 4
  br label %return

return:                                           ; preds = %sw.epilog, %if.then11, %if.then5, %if.then
  %8 = load i32, ptr %retval, align 4
  ret i32 %8
}

; Function Attrs: mustprogress uwtable
define internal void @_ZN12_GLOBAL__N_115PluralTableSink3putEPKcRN6icu_7513ResourceValueEaR10UErrorCode(ptr noundef nonnull align 8 dereferenceable(16) %this, ptr noundef %key, ptr noundef nonnull align 8 dereferenceable(8) %value, i8 noundef signext %0, ptr noundef nonnull align 4 dereferenceable(4) %status) unnamed_addr #1 align 2 {
entry:
  %this.addr = alloca ptr, align 8
  %key.addr = alloca ptr, align 8
  %value.addr = alloca ptr, align 8
  %.addr = alloca i8, align 1
  %status.addr = alloca ptr, align 8
  %index = alloca i32, align 4
  %ref.tmp = alloca %"class.icu_75::UnicodeString", align 8
  store ptr %this, ptr %this.addr, align 8
  store ptr %key, ptr %key.addr, align 8
  store ptr %value, ptr %value.addr, align 8
  store i8 %0, ptr %.addr, align 1
  store ptr %status, ptr %status.addr, align 8
  %this1 = load ptr, ptr %this.addr, align 8
  %1 = load ptr, ptr %key.addr, align 8
  %call = call i32 @strcmp(ptr noundef %1, ptr noundef @.str.1) #17
  %cmp = icmp eq i32 %call, 0
  br i1 %cmp, label %if.then, label %if.end

if.then:                                          ; preds = %entry
  br label %if.end17

if.end:                                           ; preds = %entry
  %2 = load ptr, ptr %key.addr, align 8
  %3 = load ptr, ptr %status.addr, align 8
  %call2 = call noundef i32 @_ZN12_GLOBAL__N_18getIndexEPKcR10UErrorCode(ptr noundef %2, ptr noundef nonnull align 4 dereferenceable(4) %3)
  store i32 %call2, ptr %index, align 4
  %4 = load ptr, ptr %status.addr, align 8
  %5 = load i32, ptr %4, align 4
  %call3 = call noundef signext i8 @_ZL9U_FAILURE10UErrorCode(i32 noundef %5)
  %tobool = icmp ne i8 %call3, 0
  br i1 %tobool, label %if.then4, label %if.end5

if.then4:                                         ; preds = %if.end
  br label %if.end17

if.end5:                                          ; preds = %if.end
  %outArray = getelementptr inbounds %"class.(anonymous namespace)::PluralTableSink", ptr %this1, i32 0, i32 1
  %6 = load ptr, ptr %outArray, align 8
  %7 = load i32, ptr %index, align 4
  %idxprom = sext i32 %7 to i64
  %arrayidx = getelementptr inbounds %"class.icu_75::UnicodeString", ptr %6, i64 %idxprom
  %call6 = call noundef signext i8 @_ZNK6icu_7513UnicodeString7isBogusEv(ptr noundef nonnull align 8 dereferenceable(64) %arrayidx)
  %tobool7 = icmp ne i8 %call6, 0
  br i1 %tobool7, label %if.end9, label %if.then8

if.then8:                                         ; preds = %if.end5
  br label %if.end17

if.end9:                                          ; preds = %if.end5
  %8 = load ptr, ptr %value.addr, align 8
  %9 = load ptr, ptr %status.addr, align 8
  call void @_ZNK6icu_7513ResourceValue16getUnicodeStringER10UErrorCode(ptr sret(%"class.icu_75::UnicodeString") align 8 %ref.tmp, ptr noundef nonnull align 8 dereferenceable(8) %8, ptr noundef nonnull align 4 dereferenceable(4) %9)
  %outArray10 = getelementptr inbounds %"class.(anonymous namespace)::PluralTableSink", ptr %this1, i32 0, i32 1
  %10 = load ptr, ptr %outArray10, align 8
  %11 = load i32, ptr %index, align 4
  %idxprom11 = sext i32 %11 to i64
  %arrayidx12 = getelementptr inbounds %"class.icu_75::UnicodeString", ptr %10, i64 %idxprom11
  %call13 = call noundef nonnull align 8 dereferenceable(64) ptr @_ZN6icu_7513UnicodeStringaSEOS0_(ptr noundef nonnull align 8 dereferenceable(64) %arrayidx12, ptr noundef nonnull align 8 dereferenceable(64) %ref.tmp) #14
  call void @_ZN6icu_7513UnicodeStringD1Ev(ptr noundef nonnull align 8 dereferenceable(64) %ref.tmp) #14
  %12 = load ptr, ptr %status.addr, align 8
  %13 = load i32, ptr %12, align 4
  %call14 = call noundef signext i8 @_ZL9U_FAILURE10UErrorCode(i32 noundef %13)
  %tobool15 = icmp ne i8 %call14, 0
  br i1 %tobool15, label %if.then16, label %if.end17

if.then16:                                        ; preds = %if.end9
  br label %if.end17

if.end17:                                         ; preds = %if.then16, %if.end9, %if.then8, %if.then4, %if.then
  ret void
}