; Function Attrs: mustprogress uwtable
define internal void @_ZN12_GLOBAL__N_115PluralTableSink3putEPKcRN6icu_7513ResourceValueEaR10UErrorCode(ptr nocapture noundef nonnull readonly align 8 dereferenceable(16) %this, ptr noundef %key, ptr noundef nonnull align 8 dereferenceable(8) %value, i8 signext %0, ptr noundef nonnull align 4 dereferenceable(4) %status) unnamed_addr #1 align 2 personality ptr @__gxx_personality_v0 {
entry:
  %len.i = alloca i32, align 4
  %agg.tmp.i = alloca %"class.icu_75::ConstChar16Ptr", align 8
  %ref.tmp = alloca %"class.icu_75::UnicodeString", align 8
  %call = tail call i32 @strcmp(ptr noundef nonnull dereferenceable(1) %key, ptr noundef nonnull dereferenceable(5) @.str.1) #21
  %cmp = icmp eq i32 %call, 0
  br i1 %cmp, label %if.end17, label %if.end

if.end:                                           ; preds = %entry
  %1 = load i8, ptr %key, align 1
  switch i8 %1, label %sw.epilog.i [
    i8 100, label %sw.bb.i
    i8 103, label %sw.bb1.i
    i8 112, label %sw.bb7.i
  ]

sw.bb.i:                                          ; preds = %if.end
  %add.ptr.i = getelementptr inbounds i8, ptr %key, i64 1
  %call.i = tail call i32 @strcmp(ptr noundef nonnull dereferenceable(1) %add.ptr.i, ptr noundef nonnull dereferenceable(4) @.str.41) #21
  %cmp.i = icmp eq i32 %call.i, 0
  br i1 %cmp.i, label %_ZN12_GLOBAL__N_18getIndexEPKcR10UErrorCode.exit, label %sw.epilog.i

sw.bb1.i:                                         ; preds = %if.end
  %add.ptr2.i = getelementptr inbounds i8, ptr %key, i64 1
  %call3.i = tail call i32 @strcmp(ptr noundef nonnull dereferenceable(1) %add.ptr2.i, ptr noundef nonnull dereferenceable(6) @.str.42) #21
  %cmp4.i = icmp eq i32 %call3.i, 0
  br i1 %cmp4.i, label %_ZN12_GLOBAL__N_18getIndexEPKcR10UErrorCode.exit, label %sw.epilog.i

sw.bb7.i:                                         ; preds = %if.end
  %add.ptr8.i = getelementptr inbounds i8, ptr %key, i64 1
  %call9.i = tail call i32 @strcmp(ptr noundef nonnull dereferenceable(1) %add.ptr8.i, ptr noundef nonnull dereferenceable(3) @.str.43) #21
  %cmp10.i = icmp eq i32 %call9.i, 0
  br i1 %cmp10.i, label %_ZN12_GLOBAL__N_18getIndexEPKcR10UErrorCode.exit, label %sw.epilog.i

sw.epilog.i:                                      ; preds = %sw.bb7.i, %sw.bb1.i, %sw.bb.i, %if.end
  %call.i.i = tail call noundef i32 @_ZN6icu_7514StandardPlural15indexFromStringEPKcR10UErrorCode(ptr noundef nonnull %key, ptr noundef nonnull align 4 dereferenceable(4) %status)
  %2 = sext i32 %call.i.i to i64
  br label %_ZN12_GLOBAL__N_18getIndexEPKcR10UErrorCode.exit

_ZN12_GLOBAL__N_18getIndexEPKcR10UErrorCode.exit: ; preds = %sw.bb.i, %sw.bb1.i, %sw.bb7.i, %sw.epilog.i
  %retval.0.i = phi i64 [ %2, %sw.epilog.i ], [ 8, %sw.bb.i ], [ 10, %sw.bb1.i ], [ 9, %sw.bb7.i ]
  %3 = load i32, ptr %status, align 4
  %cmp.i6 = icmp slt i32 %3, 1
  br i1 %cmp.i6, label %if.end5, label %if.end17

if.end5:                                          ; preds = %_ZN12_GLOBAL__N_18getIndexEPKcR10UErrorCode.exit
  %outArray = getelementptr inbounds i8, ptr %this, i64 8
  %4 = load ptr, ptr %outArray, align 8
  %fUnion.i = getelementptr inbounds %"class.icu_75::UnicodeString", ptr %4, i64 %retval.0.i, i32 1
  %5 = load i16, ptr %fUnion.i, align 8
  %conv2.i10 = and i16 %5, 1
  %tobool7.not = icmp eq i16 %conv2.i10, 0
  br i1 %tobool7.not, label %if.end17, label %if.end9

if.end9:                                          ; preds = %if.end5
  call void @llvm.lifetime.start.p0(i64 4, ptr nonnull %len.i)
  call void @llvm.lifetime.start.p0(i64 8, ptr nonnull %agg.tmp.i)
  store i32 0, ptr %len.i, align 4, !noalias !76
  %vtable.i = load ptr, ptr %value, align 8, !noalias !76
  %vfn.i = getelementptr inbounds i8, ptr %vtable.i, i64 32
  %6 = load ptr, ptr %vfn.i, align 8, !noalias !76
  %call.i7 = call noundef ptr %6(ptr noundef nonnull align 8 dereferenceable(8) %value, ptr noundef nonnull align 4 dereferenceable(4) %len.i, ptr noundef nonnull align 4 dereferenceable(4) %status), !noalias !76
  store ptr %call.i7, ptr %agg.tmp.i, align 8, !noalias !76
  %7 = load i32, ptr %len.i, align 4, !noalias !76
  invoke void @_ZN6icu_7513UnicodeStringC1EaNS_14ConstChar16PtrEi(ptr noundef nonnull align 8 dereferenceable(64) %ref.tmp, i8 noundef signext 1, ptr noundef nonnull %agg.tmp.i, i32 noundef %7)
          to label %_ZNK6icu_7513ResourceValue16getUnicodeStringER10UErrorCode.exit unwind label %lpad.i

lpad.i:                                           ; preds = %if.end9
  %8 = landingpad { ptr, i32 }
          cleanup
  %9 = load ptr, ptr %agg.tmp.i, align 8, !noalias !76
  call void asm sideeffect "", "rm,~{memory},~{dirflag},~{fpsr},~{flags}"(ptr %9) #18, !srcloc !10
  resume { ptr, i32 } %8

_ZNK6icu_7513ResourceValue16getUnicodeStringER10UErrorCode.exit: ; preds = %if.end9
  %10 = load ptr, ptr %agg.tmp.i, align 8, !noalias !76
  call void asm sideeffect "", "rm,~{memory},~{dirflag},~{fpsr},~{flags}"(ptr %10) #18, !srcloc !10
  call void @llvm.lifetime.end.p0(i64 4, ptr nonnull %len.i)
  call void @llvm.lifetime.end.p0(i64 8, ptr nonnull %agg.tmp.i)
  %11 = load ptr, ptr %outArray, align 8
  %arrayidx12 = getelementptr inbounds %"class.icu_75::UnicodeString", ptr %11, i64 %retval.0.i
  %call13 = call noundef nonnull align 8 dereferenceable(64) ptr @_ZN6icu_7513UnicodeStringaSEOS0_(ptr noundef nonnull align 8 dereferenceable(64) %arrayidx12, ptr noundef nonnull align 8 dereferenceable(64) %ref.tmp) #18
  call void @_ZN6icu_7513UnicodeStringD1Ev(ptr noundef nonnull align 8 dereferenceable(64) %ref.tmp) #18
  br label %if.end17

if.end17:                                         ; preds = %_ZNK6icu_7513ResourceValue16getUnicodeStringER10UErrorCode.exit, %if.end5, %_ZN12_GLOBAL__N_18getIndexEPKcR10UErrorCode.exit, %entry
  ret void
}